target datalayout = "e-m:e-p270:32:32-p271:32:32-p272:64:64-i64:64-i128:128-f80:128-n8:16:32:64-S128"
target triple = "x86_64-pc-linux-gnu"

%struct._zend_extension = type { ptr, ptr, ptr, ptr, ptr, ptr, ptr, ptr, ptr, ptr, ptr, ptr, ptr, ptr, ptr, ptr, ptr, ptr, ptr, ptr, ptr, ptr, ptr, ptr, ptr, i32 }

@.str.11 = private unnamed_addr constant [25 x i8] c"ZEND_DONT_UNLOAD_MODULES\00", align 1

; Function Attrs: nounwind uwtable
define hidden void @zend_extension_dtor(ptr noundef %0) #0 {
  %2 = alloca ptr, align 8
  store ptr %0, ptr %2, align 8, !tbaa !14
  %3 = load ptr, ptr %2, align 8, !tbaa !14
  %4 = getelementptr inbounds nuw %struct._zend_extension, ptr %3, i32 0, i32 24
  %5 = load ptr, ptr %4, align 8, !tbaa !35
  %6 = icmp ne ptr %5, null
  br i1 %6, label %7, label %15

7:                                                ; preds = %1
  %8 = call ptr @getenv(ptr noundef @.str.11) #11
  %9 = icmp ne ptr %8, null
  br i1 %9, label %15, label %10

10:                                               ; preds = %7
  %11 = load ptr, ptr %2, align 8, !tbaa !14
  %12 = getelementptr inbounds nuw %struct._zend_extension, ptr %11, i32 0, i32 24
  %13 = load ptr, ptr %12, align 8, !tbaa !35
  %14 = call i32 @dlclose(ptr noundef %13) #11
  br label %15

15:                                               ; preds = %10, %7, %1
  ret void
}