; Function Attrs: nounwind uwtable
define hidden void @zend_extension_dtor(ptr noundef readonly captures(none) %0) #0 {
  %2 = getelementptr inbounds nuw i8, ptr %0, i64 192
  %3 = load ptr, ptr %2, align 8, !tbaa !26
  %.not = icmp eq ptr %3, null
  br i1 %.not, label %8, label %4

4:                                                ; preds = %1
  %5 = tail call ptr @getenv(ptr noundef nonnull @.str.11) #14
  %.not2 = icmp eq ptr %5, null
  br i1 %.not2, label %6, label %8

6:                                                ; preds = %4
  %7 = tail call i32 @dlclose(ptr noundef nonnull %3) #14
  br label %8

8:                                                ; preds = %6, %4, %1
  ret void
}